; Function Attrs: nounwind uwtable
define ptr @l_Array_foldlMUnsafe_fold___at___private_Lean_Meta_Tactic_Cleanup_0__Lean_Meta_cleanupCore___spec__6___at___private_Lean_Meta_Tactic_Cleanup_0__Lean_Meta_cleanupCore___spec__7(ptr noundef %0, ptr noundef readonly captures(none) %1, i64 noundef %2, i64 noundef %3, ptr noundef %4) local_unnamed_addr #0 {
  %.not55 = icmp eq i64 %2, %3
  br i1 %.not55, label %._crit_edge, label %.lr.ph

.lr.ph:                                           ; preds = %5
  %6 = getelementptr inbounds nuw i8, ptr %1, i64 24
  br label %7

7:                                                ; preds = %.lr.ph, %lean_dec.exit31
  %.02657 = phi i64 [ %2, %.lr.ph ], [ %38, %lean_dec.exit31 ]
  %.02856 = phi ptr [ %4, %.lr.ph ], [ %.230, %lean_dec.exit31 ]
  %8 = getelementptr inbounds nuw [0 x ptr], ptr %6, i64 0, i64 %.02657
  %9 = load ptr, ptr %8, align 8, !tbaa !9
  %10 = ptrtoint ptr %9 to i64
  %11 = and i64 %10, 1
  %.not.i40 = icmp eq i64 %11, 0
  br i1 %.not.i40, label %12, label %lean_array_uget.exit

12:                                               ; preds = %7
  %.val.i.i = load i32, ptr %9, align 4, !tbaa !4
  %13 = icmp sgt i32 %.val.i.i, 0
  br i1 %13, label %14, label %16, !prof !11

14:                                               ; preds = %12
  %15 = add nuw i32 %.val.i.i, 1
  store i32 %15, ptr %9, align 4, !tbaa !4
  br label %lean_array_uget.exit

16:                                               ; preds = %12
  %.not.i.i = icmp eq i32 %.val.i.i, 0
  br i1 %.not.i.i, label %lean_array_uget.exit, label %17

17:                                               ; preds = %16
  tail call void @lean_inc_ref_cold(ptr noundef nonnull %9) #5
  br label %lean_array_uget.exit

lean_array_uget.exit:                             ; preds = %7, %14, %16, %17
  %18 = getelementptr inbounds nuw i8, ptr %9, i64 16
  %19 = load ptr, ptr %18, align 8, !tbaa !9
  %20 = ptrtoint ptr %19 to i64
  %21 = and i64 %20, 1
  %.not52 = icmp eq i64 %21, 0
  br i1 %.not52, label %22, label %lean_inc.exit

22:                                               ; preds = %lean_array_uget.exit
  %.val.i = load i32, ptr %19, align 4, !tbaa !4
  %23 = icmp sgt i32 %.val.i, 0
  br i1 %23, label %24, label %26, !prof !11

24:                                               ; preds = %22
  %25 = add nuw i32 %.val.i, 1
  store i32 %25, ptr %19, align 4, !tbaa !4
  br label %29

26:                                               ; preds = %22
  %.not.i41 = icmp eq i32 %.val.i, 0
  br i1 %.not.i41, label %29, label %27

27:                                               ; preds = %26
  tail call void @lean_inc_ref_cold(ptr noundef nonnull %19) #5
  br label %29

lean_inc.exit:                                    ; preds = %lean_array_uget.exit
  %28 = tail call ptr @l_Lean_Expr_fvarId_x21(ptr noundef %19) #5
  br label %lean_dec.exit33

29:                                               ; preds = %27, %26, %24
  %30 = tail call ptr @l_Lean_Expr_fvarId_x21(ptr noundef nonnull %19) #5
  %31 = load i32, ptr %19, align 4, !tbaa !4
  %32 = icmp sgt i32 %31, 1
  br i1 %32, label %33, label %35, !prof !11

33:                                               ; preds = %29
  %34 = add nsw i32 %31, -1
  store i32 %34, ptr %19, align 4, !tbaa !4
  br label %lean_dec.exit33

35:                                               ; preds = %29
  %.not.i = icmp eq i32 %31, 0
  br i1 %.not.i, label %lean_dec.exit33, label %36

36:                                               ; preds = %35
  tail call void @lean_dec_ref_cold(ptr noundef nonnull %19) #5
  br label %lean_dec.exit33

lean_dec.exit33:                                  ; preds = %36, %35, %33, %lean_inc.exit
  %37 = phi ptr [ %28, %lean_inc.exit ], [ %30, %33 ], [ %30, %35 ], [ %30, %36 ]
  %38 = add i64 %.02657, 1
  %39 = tail call ptr @l_Lean_RBNode_findCore___at___private_Lean_Meta_FunInfo_0__Lean_Meta_getFunInfoAux___spec__2(ptr noundef %0, ptr noundef %37) #5
  %40 = ptrtoint ptr %37 to i64
  %41 = and i64 %40, 1
  %.not53 = icmp eq i64 %41, 0
  br i1 %.not53, label %42, label %lean_dec.exit32

42:                                               ; preds = %lean_dec.exit33
  %43 = load i32, ptr %37, align 4, !tbaa !4
  %44 = icmp sgt i32 %43, 1
  br i1 %44, label %45, label %47, !prof !11

45:                                               ; preds = %42
  %46 = add nsw i32 %43, -1
  store i32 %46, ptr %37, align 4, !tbaa !4
  br label %lean_dec.exit32

47:                                               ; preds = %42
  %.not.i34 = icmp eq i32 %43, 0
  br i1 %.not.i34, label %lean_dec.exit32, label %48

48:                                               ; preds = %47
  tail call void @lean_dec_ref_cold(ptr noundef nonnull %37) #5
  br label %lean_dec.exit32

lean_dec.exit32:                                  ; preds = %48, %47, %45, %lean_dec.exit33
  %49 = ptrtoint ptr %39 to i64
  %50 = and i64 %49, 1
  %.not.i42 = icmp eq i64 %50, 0
  br i1 %.not.i42, label %lean_obj_tag.exit.thread, label %lean_obj_tag.exit

lean_obj_tag.exit:                                ; preds = %lean_dec.exit32
  %51 = and i64 %49, 8589934590
  %52 = icmp eq i64 %51, 0
  br i1 %52, label %55, label %lean_dec.exit

lean_obj_tag.exit.thread:                         ; preds = %lean_dec.exit32
  %53 = getelementptr i8, ptr %39, i64 4
  %.val.i43 = load i32, ptr %53, align 4
  %54 = icmp ult i32 %.val.i43, 16777216
  br i1 %54, label %55, label %.thread

55:                                               ; preds = %lean_obj_tag.exit.thread, %lean_obj_tag.exit
  br i1 %.not.i40, label %56, label %lean_dec.exit31

56:                                               ; preds = %55
  %57 = load i32, ptr %9, align 4, !tbaa !4
  %58 = icmp sgt i32 %57, 1
  br i1 %58, label %59, label %61, !prof !11

59:                                               ; preds = %56
  %60 = add nsw i32 %57, -1
  store i32 %60, ptr %9, align 4, !tbaa !4
  br label %lean_dec.exit31

61:                                               ; preds = %56
  %.not.i36 = icmp eq i32 %57, 0
  br i1 %.not.i36, label %lean_dec.exit31, label %62

62:                                               ; preds = %61
  tail call void @lean_dec_ref_cold(ptr noundef nonnull %9) #5
  br label %lean_dec.exit31

.thread:                                          ; preds = %lean_obj_tag.exit.thread
  %63 = load i32, ptr %39, align 4, !tbaa !4
  %64 = icmp sgt i32 %63, 1
  br i1 %64, label %65, label %67, !prof !11

65:                                               ; preds = %.thread
  %66 = add nsw i32 %63, -1
  store i32 %66, ptr %39, align 4, !tbaa !4
  br label %lean_dec.exit

67:                                               ; preds = %.thread
  %.not.i38 = icmp eq i32 %63, 0
  br i1 %.not.i38, label %lean_dec.exit, label %68

68:                                               ; preds = %67
  tail call void @lean_dec_ref_cold(ptr noundef nonnull %39) #5
  br label %lean_dec.exit

lean_dec.exit:                                    ; preds = %lean_obj_tag.exit, %68, %67, %65
  %69 = tail call ptr @lean_array_push(ptr noundef %.02856, ptr noundef nonnull %9) #5
  br label %lean_dec.exit31

lean_dec.exit31:                                  ; preds = %55, %59, %61, %62, %lean_dec.exit
  %.230 = phi ptr [ %69, %lean_dec.exit ], [ %.02856, %62 ], [ %.02856, %61 ], [ %.02856, %59 ], [ %.02856, %55 ]
  %.not = icmp eq i64 %38, %3
  br i1 %.not, label %._crit_edge, label %7

._crit_edge:                                      ; preds = %lean_dec.exit31, %5
  %.028.lcssa = phi ptr [ %4, %5 ], [ %.230, %lean_dec.exit31 ]
  ret ptr %.028.lcssa
}